; Function Attrs: mustprogress nounwind uwtable
define void @_ZN3spv10spirvbin_t5remapERSt6vectorIjSaIjEERKS1_INSt7__cxx1112basic_stringIcSt11char_traitsIcESaIcEEESaISA_EEj(ptr noundef nonnull align 8 dereferenceable(473) %0, ptr nocapture noundef nonnull align 8 dereferenceable(24) %1, ptr noundef nonnull align 8 dereferenceable(24) %2, i32 noundef %3) local_unnamed_addr #0 align 2 {
  %5 = getelementptr inbounds i8, ptr %0, i64 32
  %6 = tail call noundef nonnull align 8 dereferenceable(24) ptr @_ZNSt6vectorINSt7__cxx1112basic_stringIcSt11char_traitsIcESaIcEEESaIS5_EEaSERKS7_(ptr noundef nonnull align 8 dereferenceable(24) %5, ptr noundef nonnull align 8 dereferenceable(24) %2)
  %7 = getelementptr inbounds i8, ptr %0, i64 8
  %8 = getelementptr inbounds i8, ptr %0, i64 16
  %9 = getelementptr inbounds i8, ptr %0, i64 24
  %10 = load ptr, ptr %9, align 8
  %11 = load ptr, ptr %1, align 8
  %12 = getelementptr inbounds i8, ptr %1, i64 8
  %13 = getelementptr inbounds i8, ptr %1, i64 16
  %14 = load <2 x ptr>, ptr %7, align 8
  store ptr %11, ptr %7, align 8
  %15 = load ptr, ptr %12, align 8
  store ptr %15, ptr %8, align 8
  %16 = load ptr, ptr %13, align 8
  store ptr %16, ptr %9, align 8
  store <2 x ptr> %14, ptr %1, align 8
  store ptr %10, ptr %13, align 8
  tail call void @_ZN3spv10spirvbin_t5remapEj(ptr noundef nonnull align 8 dereferenceable(473) %0, i32 noundef %3)
  %17 = load ptr, ptr %9, align 8
  %18 = load ptr, ptr %1, align 8
  %19 = load <2 x ptr>, ptr %7, align 8
  store ptr %18, ptr %7, align 8
  %20 = load ptr, ptr %12, align 8
  store ptr %20, ptr %8, align 8
  %21 = load ptr, ptr %13, align 8
  store ptr %21, ptr %9, align 8
  store <2 x ptr> %19, ptr %1, align 8
  store ptr %17, ptr %13, align 8
  ret void
}